target datalayout = "e-m:e-p270:32:32-p271:32:32-p272:64:64-i64:64-i128:128-f80:128-n8:16:32:64-S128"
target triple = "x86_64-pc-linux-gnu"

%struct.AVFilterContext = type { ptr, ptr, ptr, ptr, ptr, i32, ptr, ptr, i32, ptr, ptr, i32, i32, ptr, ptr, ptr, ptr, i32, ptr, i32, i32 }
%struct.LatencyContext = type { i64, i64, i64 }

@.str.4 = private unnamed_addr constant [18 x i8] c"Min latency: %ld\0A\00", align 1
@.str.5 = private unnamed_addr constant [18 x i8] c"Max latency: %ld\0A\00", align 1

; Function Attrs: cold nounwind optsize uwtable
define internal void @uninit(ptr noundef %0) #0 {
  %2 = alloca ptr, align 8
  %3 = alloca ptr, align 8
  store ptr %0, ptr %2, align 8, !tbaa !4
  call void @llvm.lifetime.start.p0(i64 8, ptr %3) #5
  %4 = load ptr, ptr %2, align 8, !tbaa !4
  %5 = getelementptr inbounds nuw %struct.AVFilterContext, ptr %4, i32 0, i32 9
  %6 = load ptr, ptr %5, align 8, !tbaa !9
  store ptr %6, ptr %3, align 8, !tbaa !22
  %7 = load ptr, ptr %3, align 8, !tbaa !22
  %8 = getelementptr inbounds nuw %struct.LatencyContext, ptr %7, i32 0, i32 0
  %9 = load i64, ptr %8, align 8, !tbaa !24
  %10 = icmp ne i64 %9, 9223372036854775807
  br i1 %10, label %11, label %16

11:                                               ; preds = %1
  %12 = load ptr, ptr %2, align 8, !tbaa !4
  %13 = load ptr, ptr %3, align 8, !tbaa !22
  %14 = getelementptr inbounds nuw %struct.LatencyContext, ptr %13, i32 0, i32 0
  %15 = load i64, ptr %14, align 8, !tbaa !24
  call void (ptr, i32, ptr, ...) @av_log(ptr noundef %12, i32 noundef 32, ptr noundef @.str.4, i64 noundef %15)
  br label %16

16:                                               ; preds = %11, %1
  %17 = load ptr, ptr %3, align 8, !tbaa !22
  %18 = getelementptr inbounds nuw %struct.LatencyContext, ptr %17, i32 0, i32 1
  %19 = load i64, ptr %18, align 8, !tbaa !27
  %20 = icmp ne i64 %19, -9223372036854775808
  br i1 %20, label %21, label %26

21:                                               ; preds = %16
  %22 = load ptr, ptr %2, align 8, !tbaa !4
  %23 = load ptr, ptr %3, align 8, !tbaa !22
  %24 = getelementptr inbounds nuw %struct.LatencyContext, ptr %23, i32 0, i32 1
  %25 = load i64, ptr %24, align 8, !tbaa !27
  call void (ptr, i32, ptr, ...) @av_log(ptr noundef %22, i32 noundef 32, ptr noundef @.str.5, i64 noundef %25)
  br label %26

26:                                               ; preds = %21, %16
  call void @llvm.lifetime.end.p0(i64 8, ptr %3) #5
  ret void
}