; Function Attrs: cold nounwind optsize uwtable
define internal void @uninit(ptr noundef %0) #1 {
  %2 = getelementptr inbounds nuw i8, ptr %0, i64 72
  %3 = load ptr, ptr %2, align 8, !tbaa !4
  %4 = load i64, ptr %3, align 8, !tbaa !20
  %.not = icmp eq i64 %4, 9223372036854775807
  br i1 %.not, label %6, label %5

5:                                                ; preds = %1
  tail call void (ptr, i32, ptr, ...) @av_log(ptr noundef nonnull %0, i32 noundef 32, ptr noundef nonnull @.str.4, i64 noundef %4) #6
  br label %6

6:                                                ; preds = %5, %1
  %7 = getelementptr inbounds nuw i8, ptr %3, i64 8
  %8 = load i64, ptr %7, align 8, !tbaa !23
  %.not8 = icmp eq i64 %8, -9223372036854775808
  br i1 %.not8, label %10, label %9

9:                                                ; preds = %6
  tail call void (ptr, i32, ptr, ...) @av_log(ptr noundef nonnull %0, i32 noundef 32, ptr noundef nonnull @.str.5, i64 noundef %8) #6
  br label %10

10:                                               ; preds = %9, %6
  ret void
}